target datalayout = "e-m:e-p270:32:32-p271:32:32-p272:64:64-i64:64-i128:128-f80:128-n8:16:32:64-S128"
target triple = "x86_64-pc-linux-gnu"

%struct.Aig_Man_t_ = type { ptr, ptr, ptr, ptr, ptr, ptr, ptr, %struct.Aig_Obj_t_, i32, i32, i32, i32, i32, i32, [7 x i32], i32, ptr, i32, ptr, i32, ptr, i32, i32, i32, ptr, i32, i32, i32, i32, i32, ptr, ptr, i32, ptr, ptr, i32, ptr, ptr, i32, i32, i32, ptr, ptr, ptr, ptr, ptr, ptr, ptr, ptr, ptr, ptr, ptr, ptr, ptr, ptr, i32, ptr, ptr, ptr, ptr, i32, i64, i64, i64, ptr, ptr }
%struct.Aig_Obj_t_ = type { %union.anon, ptr, ptr, i64, i32, i32, %union.anon.0 }
%union.anon = type { ptr }
%union.anon.0 = type { ptr }
%struct.Vec_Ptr_t_ = type { i32, i32, ptr }

; Function Attrs: inlinehint nounwind uwtable
define internal void @Vec_PtrGrow(ptr noundef %0, i32 noundef %1) #4 {
  %3 = alloca ptr, align 8
  %4 = alloca i32, align 4
  store ptr %0, ptr %3, align 8, !tbaa !34
  store i32 %1, ptr %4, align 4, !tbaa !3
  %5 = load ptr, ptr %3, align 8, !tbaa !34
  %6 = getelementptr inbounds nuw %struct.Vec_Ptr_t_, ptr %5, i32 0, i32 0
  %7 = load i32, ptr %6, align 8, !tbaa !37
  %8 = load i32, ptr %4, align 4, !tbaa !3
  %9 = icmp sge i32 %7, %8
  br i1 %9, label %10, label %11

10:                                               ; preds = %2
  br label %36

11:                                               ; preds = %2
  %12 = load ptr, ptr %3, align 8, !tbaa !34
  %13 = getelementptr inbounds nuw %struct.Vec_Ptr_t_, ptr %12, i32 0, i32 2
  %14 = load ptr, ptr %13, align 8, !tbaa !38
  %15 = icmp ne ptr %14, null
  br i1 %15, label %16, label %24

16:                                               ; preds = %11
  %17 = load ptr, ptr %3, align 8, !tbaa !34
  %18 = getelementptr inbounds nuw %struct.Vec_Ptr_t_, ptr %17, i32 0, i32 2
  %19 = load ptr, ptr %18, align 8, !tbaa !38
  %20 = load i32, ptr %4, align 4, !tbaa !3
  %21 = sext i32 %20 to i64
  %22 = mul i64 8, %21
  %23 = call ptr @realloc(ptr noundef %19, i64 noundef %22) #13
  br label %29

24:                                               ; preds = %11
  %25 = load i32, ptr %4, align 4, !tbaa !3
  %26 = sext i32 %25 to i64
  %27 = mul i64 8, %26
  %28 = call noalias ptr @malloc(i64 noundef %27) #11
  br label %29

29:                                               ; preds = %24, %16
  %30 = phi ptr [ %23, %16 ], [ %28, %24 ]
  %31 = load ptr, ptr %3, align 8, !tbaa !34
  %32 = getelementptr inbounds nuw %struct.Vec_Ptr_t_, ptr %31, i32 0, i32 2
  store ptr %30, ptr %32, align 8, !tbaa !38
  %33 = load i32, ptr %4, align 4, !tbaa !3
  %34 = load ptr, ptr %3, align 8, !tbaa !34
  %35 = getelementptr inbounds nuw %struct.Vec_Ptr_t_, ptr %34, i32 0, i32 0
  store i32 %33, ptr %35, align 8, !tbaa !37
  br label %36

36:                                               ; preds = %29, %10
  ret void
}

; Function Attrs: inlinehint nounwind uwtable
define internal void @Vec_PtrPush(ptr noundef %0, ptr noundef %1) #4 {
  %3 = alloca ptr, align 8
  %4 = alloca ptr, align 8
  store ptr %0, ptr %3, align 8, !tbaa !34
  store ptr %1, ptr %4, align 8, !tbaa !49
  %5 = load ptr, ptr %3, align 8, !tbaa !34
  %6 = getelementptr inbounds nuw %struct.Vec_Ptr_t_, ptr %5, i32 0, i32 1
  %7 = load i32, ptr %6, align 4, !tbaa !35
  %8 = load ptr, ptr %3, align 8, !tbaa !34
  %9 = getelementptr inbounds nuw %struct.Vec_Ptr_t_, ptr %8, i32 0, i32 0
  %10 = load i32, ptr %9, align 8, !tbaa !37
  %11 = icmp eq i32 %7, %10
  br i1 %11, label %12, label %26

12:                                               ; preds = %2
  %13 = load ptr, ptr %3, align 8, !tbaa !34
  %14 = getelementptr inbounds nuw %struct.Vec_Ptr_t_, ptr %13, i32 0, i32 0
  %15 = load i32, ptr %14, align 8, !tbaa !37
  %16 = icmp slt i32 %15, 16
  br i1 %16, label %17, label %19

17:                                               ; preds = %12
  %18 = load ptr, ptr %3, align 8, !tbaa !34
  call void @Vec_PtrGrow(ptr noundef %18, i32 noundef 16)
  br label %25

19:                                               ; preds = %12
  %20 = load ptr, ptr %3, align 8, !tbaa !34
  %21 = load ptr, ptr %3, align 8, !tbaa !34
  %22 = getelementptr inbounds nuw %struct.Vec_Ptr_t_, ptr %21, i32 0, i32 0
  %23 = load i32, ptr %22, align 8, !tbaa !37
  %24 = mul nsw i32 2, %23
  call void @Vec_PtrGrow(ptr noundef %20, i32 noundef %24)
  br label %25

25:                                               ; preds = %19, %17
  br label %26

26:                                               ; preds = %25, %2
  %27 = load ptr, ptr %4, align 8, !tbaa !49
  %28 = load ptr, ptr %3, align 8, !tbaa !34
  %29 = getelementptr inbounds nuw %struct.Vec_Ptr_t_, ptr %28, i32 0, i32 2
  %30 = load ptr, ptr %29, align 8, !tbaa !38
  %31 = load ptr, ptr %3, align 8, !tbaa !34
  %32 = getelementptr inbounds nuw %struct.Vec_Ptr_t_, ptr %31, i32 0, i32 1
  %33 = load i32, ptr %32, align 4, !tbaa !35
  %34 = add nsw i32 %33, 1
  store i32 %34, ptr %32, align 4, !tbaa !35
  %35 = sext i32 %33 to i64
  %36 = getelementptr inbounds ptr, ptr %30, i64 %35
  store ptr %27, ptr %36, align 8, !tbaa !49
  ret void
}

; Function Attrs: inlinehint nounwind uwtable
define internal i32 @Vec_PtrSize(ptr noundef %0) #4 {
  %2 = alloca ptr, align 8
  store ptr %0, ptr %2, align 8, !tbaa !34
  %3 = load ptr, ptr %2, align 8, !tbaa !34
  %4 = getelementptr inbounds nuw %struct.Vec_Ptr_t_, ptr %3, i32 0, i32 1
  %5 = load i32, ptr %4, align 4, !tbaa !35
  ret i32 %5
}

; Function Attrs: inlinehint nounwind uwtable
define internal i32 @Abc_PrimeCudd(i32 noundef %0) #4 {
  %2 = alloca i32, align 4
  %3 = alloca i32, align 4
  %4 = alloca i32, align 4
  store i32 %0, ptr %2, align 4, !tbaa !3
  call void @llvm.lifetime.start.p0(i64 4, ptr %3) #10
  call void @llvm.lifetime.start.p0(i64 4, ptr %4) #10
  %5 = load i32, ptr %2, align 4, !tbaa !3
  %6 = add i32 %5, -1
  store i32 %6, ptr %2, align 4, !tbaa !3
  br label %7

7:                                                ; preds = %32, %1
  %8 = load i32, ptr %2, align 4, !tbaa !3
  %9 = add i32 %8, 1
  store i32 %9, ptr %2, align 4, !tbaa !3
  %10 = load i32, ptr %2, align 4, !tbaa !3
  %11 = and i32 %10, 1
  %12 = icmp ne i32 %11, 0
  br i1 %12, label %13, label %30

13:                                               ; preds = %7
  store i32 1, ptr %4, align 4, !tbaa !3
  store i32 3, ptr %3, align 4, !tbaa !3
  br label %14

14:                                               ; preds = %26, %13
  %15 = load i32, ptr %3, align 4, !tbaa !3
  %16 = load i32, ptr %3, align 4, !tbaa !3
  %17 = mul nsw i32 %15, %16
  %18 = load i32, ptr %2, align 4, !tbaa !3
  %19 = icmp ule i32 %17, %18
  br i1 %19, label %20, label %29

20:                                               ; preds = %14
  %21 = load i32, ptr %2, align 4, !tbaa !3
  %22 = load i32, ptr %3, align 4, !tbaa !3
  %23 = urem i32 %21, %22
  %24 = icmp eq i32 %23, 0
  br i1 %24, label %25, label %26

25:                                               ; preds = %20
  store i32 0, ptr %4, align 4, !tbaa !3
  br label %29

26:                                               ; preds = %20
  %27 = load i32, ptr %3, align 4, !tbaa !3
  %28 = add nsw i32 %27, 2
  store i32 %28, ptr %3, align 4, !tbaa !3
  br label %14, !llvm.loop !41

29:                                               ; preds = %25, %14
  br label %31

30:                                               ; preds = %7
  store i32 0, ptr %4, align 4, !tbaa !3
  br label %31

31:                                               ; preds = %30, %29
  br label %32

32:                                               ; preds = %31
  %33 = load i32, ptr %4, align 4, !tbaa !3
  %34 = icmp ne i32 %33, 0
  %35 = xor i1 %34, true
  br i1 %35, label %7, label %36, !llvm.loop !43

36:                                               ; preds = %32
  %37 = load i32, ptr %2, align 4, !tbaa !3
  call void @llvm.lifetime.end.p0(i64 4, ptr %4) #10
  call void @llvm.lifetime.end.p0(i64 4, ptr %3) #10
  ret i32 %37
}

; Function Attrs: inlinehint nounwind uwtable
define internal ptr @Aig_ManFetchMemory(ptr noundef %0) #4 {
  %2 = alloca ptr, align 8
  %3 = alloca ptr, align 8
  store ptr %0, ptr %2, align 8, !tbaa !7
  call void @llvm.lifetime.start.p0(i64 8, ptr %3) #10
  %4 = load ptr, ptr %2, align 8, !tbaa !7
  %5 = getelementptr inbounds nuw %struct.Aig_Man_t_, ptr %4, i32 0, i32 33
  %6 = load ptr, ptr %5, align 8, !tbaa !30
  %7 = call ptr @Aig_MmFixedEntryFetch(ptr noundef %6)
  store ptr %7, ptr %3, align 8, !tbaa !39
  %8 = load ptr, ptr %3, align 8, !tbaa !39
  call void @llvm.memset.p0.i64(ptr align 8 %8, i8 0, i64 48, i1 false)
  %9 = load ptr, ptr %2, align 8, !tbaa !7
  %10 = getelementptr inbounds nuw %struct.Aig_Man_t_, ptr %9, i32 0, i32 4
  %11 = load ptr, ptr %10, align 8, !tbaa !26
  %12 = call i32 @Vec_PtrSize(ptr noundef %11)
  %13 = load ptr, ptr %3, align 8, !tbaa !39
  %14 = getelementptr inbounds nuw %struct.Aig_Obj_t_, ptr %13, i32 0, i32 5
  store i32 %12, ptr %14, align 4, !tbaa !40
  %15 = load ptr, ptr %2, align 8, !tbaa !7
  %16 = getelementptr inbounds nuw %struct.Aig_Man_t_, ptr %15, i32 0, i32 4
  %17 = load ptr, ptr %16, align 8, !tbaa !26
  %18 = load ptr, ptr %3, align 8, !tbaa !39
  call void @Vec_PtrPush(ptr noundef %17, ptr noundef %18)
  %19 = load ptr, ptr %3, align 8, !tbaa !39
  call void @llvm.lifetime.end.p0(i64 8, ptr %3) #10
  ret ptr %19
}

; Function Attrs: inlinehint nounwind uwtable
define internal ptr @Vec_PtrAlloc(i32 noundef %0) #4 {
  %2 = alloca i32, align 4
  %3 = alloca ptr, align 8
  store i32 %0, ptr %2, align 4, !tbaa !3
  call void @llvm.lifetime.start.p0(i64 8, ptr %3) #10
  %4 = call noalias ptr @malloc(i64 noundef 16) #11
  store ptr %4, ptr %3, align 8, !tbaa !34
  %5 = load i32, ptr %2, align 4, !tbaa !3
  %6 = icmp sgt i32 %5, 0
  br i1 %6, label %7, label %11

7:                                                ; preds = %1
  %8 = load i32, ptr %2, align 4, !tbaa !3
  %9 = icmp slt i32 %8, 8
  br i1 %9, label %10, label %11

10:                                               ; preds = %7
  store i32 8, ptr %2, align 4, !tbaa !3
  br label %11

11:                                               ; preds = %10, %7, %1
  %12 = load ptr, ptr %3, align 8, !tbaa !34
  %13 = getelementptr inbounds nuw %struct.Vec_Ptr_t_, ptr %12, i32 0, i32 1
  store i32 0, ptr %13, align 4, !tbaa !35
  %14 = load i32, ptr %2, align 4, !tbaa !3
  %15 = load ptr, ptr %3, align 8, !tbaa !34
  %16 = getelementptr inbounds nuw %struct.Vec_Ptr_t_, ptr %15, i32 0, i32 0
  store i32 %14, ptr %16, align 8, !tbaa !37
  %17 = load ptr, ptr %3, align 8, !tbaa !34
  %18 = getelementptr inbounds nuw %struct.Vec_Ptr_t_, ptr %17, i32 0, i32 0
  %19 = load i32, ptr %18, align 8, !tbaa !37
  %20 = icmp ne i32 %19, 0
  br i1 %20, label %21, label %28

21:                                               ; preds = %11
  %22 = load ptr, ptr %3, align 8, !tbaa !34
  %23 = getelementptr inbounds nuw %struct.Vec_Ptr_t_, ptr %22, i32 0, i32 0
  %24 = load i32, ptr %23, align 8, !tbaa !37
  %25 = sext i32 %24 to i64
  %26 = mul i64 8, %25
  %27 = call noalias ptr @malloc(i64 noundef %26) #11
  br label %29

28:                                               ; preds = %11
  br label %29

29:                                               ; preds = %28, %21
  %30 = phi ptr [ %27, %21 ], [ null, %28 ]
  %31 = load ptr, ptr %3, align 8, !tbaa !34
  %32 = getelementptr inbounds nuw %struct.Vec_Ptr_t_, ptr %31, i32 0, i32 2
  store ptr %30, ptr %32, align 8, !tbaa !38
  %33 = load ptr, ptr %3, align 8, !tbaa !34
  call void @llvm.lifetime.end.p0(i64 8, ptr %3) #10
  ret ptr %33
}

; Function Attrs: nounwind uwtable
define ptr @Aig_ManStart(i32 noundef %0) #0 {
  %2 = alloca i32, align 4
  %3 = alloca ptr, align 8
  store i32 %0, ptr %2, align 4, !tbaa !3
  call void @llvm.lifetime.start.p0(i64 8, ptr %3) #10
  %4 = load i32, ptr %2, align 4, !tbaa !3
  %5 = icmp sle i32 %4, 0
  br i1 %5, label %6, label %7

6:                                                ; preds = %1
  store i32 10007, ptr %2, align 4, !tbaa !3
  br label %7

7:                                                ; preds = %6, %1
  %8 = call noalias ptr @malloc(i64 noundef 528) #11
  store ptr %8, ptr %3, align 8, !tbaa !7
  %9 = load ptr, ptr %3, align 8, !tbaa !7
  call void @llvm.memset.p0.i64(ptr align 8 %9, i8 0, i64 528, i1 false)
  %10 = load ptr, ptr %3, align 8, !tbaa !7
  %11 = getelementptr inbounds nuw %struct.Aig_Man_t_, ptr %10, i32 0, i32 38
  store i32 1, ptr %11, align 8, !tbaa !10
  %12 = load ptr, ptr %3, align 8, !tbaa !7
  %13 = getelementptr inbounds nuw %struct.Aig_Man_t_, ptr %12, i32 0, i32 39
  store i32 0, ptr %13, align 4, !tbaa !23
  %14 = call ptr @Vec_PtrAlloc(i32 noundef 100)
  %15 = load ptr, ptr %3, align 8, !tbaa !7
  %16 = getelementptr inbounds nuw %struct.Aig_Man_t_, ptr %15, i32 0, i32 2
  store ptr %14, ptr %16, align 8, !tbaa !24
  %17 = call ptr @Vec_PtrAlloc(i32 noundef 100)
  %18 = load ptr, ptr %3, align 8, !tbaa !7
  %19 = getelementptr inbounds nuw %struct.Aig_Man_t_, ptr %18, i32 0, i32 3
  store ptr %17, ptr %19, align 8, !tbaa !25
  %20 = call ptr @Vec_PtrAlloc(i32 noundef 1000)
  %21 = load ptr, ptr %3, align 8, !tbaa !7
  %22 = getelementptr inbounds nuw %struct.Aig_Man_t_, ptr %21, i32 0, i32 4
  store ptr %20, ptr %22, align 8, !tbaa !26
  %23 = call ptr @Vec_PtrAlloc(i32 noundef 100)
  %24 = load ptr, ptr %3, align 8, !tbaa !7
  %25 = getelementptr inbounds nuw %struct.Aig_Man_t_, ptr %24, i32 0, i32 5
  store ptr %23, ptr %25, align 8, !tbaa !27
  %26 = call ptr @Vec_PtrAlloc(i32 noundef 4)
  %27 = load ptr, ptr %3, align 8, !tbaa !7
  %28 = getelementptr inbounds nuw %struct.Aig_Man_t_, ptr %27, i32 0, i32 64
  store ptr %26, ptr %28, align 8, !tbaa !28
  %29 = call ptr @Vec_PtrAlloc(i32 noundef 4)
  %30 = load ptr, ptr %3, align 8, !tbaa !7
  %31 = getelementptr inbounds nuw %struct.Aig_Man_t_, ptr %30, i32 0, i32 65
  store ptr %29, ptr %31, align 8, !tbaa !29
  %32 = load i32, ptr %2, align 4, !tbaa !3
  %33 = call ptr @Aig_MmFixedStart(i32 noundef 48, i32 noundef %32)
  %34 = load ptr, ptr %3, align 8, !tbaa !7
  %35 = getelementptr inbounds nuw %struct.Aig_Man_t_, ptr %34, i32 0, i32 33
  store ptr %33, ptr %35, align 8, !tbaa !30
  %36 = load ptr, ptr %3, align 8, !tbaa !7
  %37 = call ptr @Aig_ManFetchMemory(ptr noundef %36)
  %38 = load ptr, ptr %3, align 8, !tbaa !7
  %39 = getelementptr inbounds nuw %struct.Aig_Man_t_, ptr %38, i32 0, i32 6
  store ptr %37, ptr %39, align 8, !tbaa !31
  %40 = load ptr, ptr %3, align 8, !tbaa !7
  %41 = getelementptr inbounds nuw %struct.Aig_Man_t_, ptr %40, i32 0, i32 6
  %42 = load ptr, ptr %41, align 8, !tbaa !31
  %43 = getelementptr inbounds nuw %struct.Aig_Obj_t_, ptr %42, i32 0, i32 3
  %44 = load i64, ptr %43, align 8
  %45 = and i64 %44, -8
  %46 = or i64 %45, 1
  store i64 %46, ptr %43, align 8
  %47 = load ptr, ptr %3, align 8, !tbaa !7
  %48 = getelementptr inbounds nuw %struct.Aig_Man_t_, ptr %47, i32 0, i32 6
  %49 = load ptr, ptr %48, align 8, !tbaa !31
  %50 = getelementptr inbounds nuw %struct.Aig_Obj_t_, ptr %49, i32 0, i32 3
  %51 = load i64, ptr %50, align 8
  %52 = and i64 %51, -9
  %53 = or i64 %52, 8
  store i64 %53, ptr %50, align 8
  %54 = load ptr, ptr %3, align 8, !tbaa !7
  %55 = getelementptr inbounds nuw %struct.Aig_Man_t_, ptr %54, i32 0, i32 14
  %56 = getelementptr inbounds [7 x i32], ptr %55, i64 0, i64 1
  %57 = load i32, ptr %56, align 4, !tbaa !3
  %58 = add nsw i32 %57, 1
  store i32 %58, ptr %56, align 4, !tbaa !3
  %59 = load i32, ptr %2, align 4, !tbaa !3
  %60 = call i32 @Abc_PrimeCudd(i32 noundef %59)
  %61 = load ptr, ptr %3, align 8, !tbaa !7
  %62 = getelementptr inbounds nuw %struct.Aig_Man_t_, ptr %61, i32 0, i32 17
  store i32 %60, ptr %62, align 8, !tbaa !32
  %63 = load ptr, ptr %3, align 8, !tbaa !7
  %64 = getelementptr inbounds nuw %struct.Aig_Man_t_, ptr %63, i32 0, i32 17
  %65 = load i32, ptr %64, align 8, !tbaa !32
  %66 = sext i32 %65 to i64
  %67 = mul i64 8, %66
  %68 = call noalias ptr @malloc(i64 noundef %67) #11
  %69 = load ptr, ptr %3, align 8, !tbaa !7
  %70 = getelementptr inbounds nuw %struct.Aig_Man_t_, ptr %69, i32 0, i32 16
  store ptr %68, ptr %70, align 8, !tbaa !33
  %71 = load ptr, ptr %3, align 8, !tbaa !7
  %72 = getelementptr inbounds nuw %struct.Aig_Man_t_, ptr %71, i32 0, i32 16
  %73 = load ptr, ptr %72, align 8, !tbaa !33
  %74 = load ptr, ptr %3, align 8, !tbaa !7
  %75 = getelementptr inbounds nuw %struct.Aig_Man_t_, ptr %74, i32 0, i32 17
  %76 = load i32, ptr %75, align 8, !tbaa !32
  %77 = sext i32 %76 to i64
  %78 = mul i64 8, %77
  call void @llvm.memset.p0.i64(ptr align 8 %73, i8 0, i64 %78, i1 false)
  %79 = load ptr, ptr %3, align 8, !tbaa !7
  call void @llvm.lifetime.end.p0(i64 8, ptr %3) #10
  ret ptr %79
}