; Function Attrs: nounwind uwtable
define noalias noundef ptr @Aig_ManStart(i32 noundef %0) local_unnamed_addr #0 {
  %2 = icmp slt i32 %0, 1
  %spec.store.select = select i1 %2, i32 10007, i32 %0
  %calloc27 = tail call dereferenceable_or_null(528) ptr @calloc(i64 1, i64 528)
  %3 = getelementptr inbounds nuw i8, ptr %calloc27, i64 312
  store i32 1, ptr %3, align 8, !tbaa !3
  %4 = tail call noalias dereferenceable_or_null(16) ptr @malloc(i64 noundef 16) #18
  %5 = getelementptr inbounds nuw i8, ptr %4, i64 4
  store i32 0, ptr %5, align 4, !tbaa !21
  store i32 100, ptr %4, align 8, !tbaa !23
  %6 = tail call noalias dereferenceable_or_null(800) ptr @malloc(i64 noundef 800) #18
  %7 = getelementptr inbounds nuw i8, ptr %4, i64 8
  store ptr %6, ptr %7, align 8, !tbaa !24
  %8 = getelementptr inbounds nuw i8, ptr %calloc27, i64 16
  store ptr %4, ptr %8, align 8, !tbaa !25
  %9 = tail call noalias dereferenceable_or_null(16) ptr @malloc(i64 noundef 16) #18
  %10 = getelementptr inbounds nuw i8, ptr %9, i64 4
  store i32 0, ptr %10, align 4, !tbaa !21
  store i32 100, ptr %9, align 8, !tbaa !23
  %11 = tail call noalias dereferenceable_or_null(800) ptr @malloc(i64 noundef 800) #18
  %12 = getelementptr inbounds nuw i8, ptr %9, i64 8
  store ptr %11, ptr %12, align 8, !tbaa !24
  %13 = getelementptr inbounds nuw i8, ptr %calloc27, i64 24
  store ptr %9, ptr %13, align 8, !tbaa !26
  %14 = tail call noalias dereferenceable_or_null(16) ptr @malloc(i64 noundef 16) #18
  %15 = getelementptr inbounds nuw i8, ptr %14, i64 4
  store i32 0, ptr %15, align 4, !tbaa !21
  store i32 1000, ptr %14, align 8, !tbaa !23
  %16 = tail call noalias dereferenceable_or_null(8000) ptr @malloc(i64 noundef 8000) #18
  %17 = getelementptr inbounds nuw i8, ptr %14, i64 8
  store ptr %16, ptr %17, align 8, !tbaa !24
  %18 = getelementptr inbounds nuw i8, ptr %calloc27, i64 32
  store ptr %14, ptr %18, align 8, !tbaa !27
  %19 = tail call noalias dereferenceable_or_null(16) ptr @malloc(i64 noundef 16) #18
  %20 = getelementptr inbounds nuw i8, ptr %19, i64 4
  store i32 0, ptr %20, align 4, !tbaa !21
  store i32 100, ptr %19, align 8, !tbaa !23
  %21 = tail call noalias dereferenceable_or_null(800) ptr @malloc(i64 noundef 800) #18
  %22 = getelementptr inbounds nuw i8, ptr %19, i64 8
  store ptr %21, ptr %22, align 8, !tbaa !24
  %23 = getelementptr inbounds nuw i8, ptr %calloc27, i64 40
  store ptr %19, ptr %23, align 8, !tbaa !28
  %24 = tail call noalias dereferenceable_or_null(16) ptr @malloc(i64 noundef 16) #18
  %25 = getelementptr inbounds nuw i8, ptr %24, i64 4
  store i32 0, ptr %25, align 4, !tbaa !21
  store i32 8, ptr %24, align 8, !tbaa !23
  %26 = tail call noalias dereferenceable_or_null(64) ptr @malloc(i64 noundef 64) #18
  %27 = getelementptr inbounds nuw i8, ptr %24, i64 8
  store ptr %26, ptr %27, align 8, !tbaa !24
  %28 = getelementptr inbounds nuw i8, ptr %calloc27, i64 512
  store ptr %24, ptr %28, align 8, !tbaa !29
  %29 = tail call noalias dereferenceable_or_null(16) ptr @malloc(i64 noundef 16) #18
  %30 = getelementptr inbounds nuw i8, ptr %29, i64 4
  store i32 0, ptr %30, align 4, !tbaa !21
  store i32 8, ptr %29, align 8, !tbaa !23
  %31 = tail call noalias dereferenceable_or_null(64) ptr @malloc(i64 noundef 64) #18
  %32 = getelementptr inbounds nuw i8, ptr %29, i64 8
  store ptr %31, ptr %32, align 8, !tbaa !24
  %33 = getelementptr inbounds nuw i8, ptr %calloc27, i64 520
  store ptr %29, ptr %33, align 8, !tbaa !30
  %34 = tail call ptr @Aig_MmFixedStart(i32 noundef 48, i32 noundef %spec.store.select) #19
  %35 = getelementptr inbounds nuw i8, ptr %calloc27, i64 272
  store ptr %34, ptr %35, align 8, !tbaa !31
  %36 = tail call ptr @Aig_MmFixedEntryFetch(ptr noundef %34) #19
  tail call void @llvm.memset.p0.i64(ptr noundef nonnull align 8 dereferenceable(48) %36, i8 0, i64 48, i1 false)
  %.val.i = load i32, ptr %15, align 4, !tbaa !21
  %37 = getelementptr inbounds nuw i8, ptr %36, i64 36
  store i32 %.val.i, ptr %37, align 4, !tbaa !32
  %38 = load i32, ptr %14, align 8, !tbaa !23
  %39 = icmp eq i32 %.val.i, %38
  br i1 %39, label %40, label %.Vec_PtrGrow.exit11_crit_edge.i.i

.Vec_PtrGrow.exit11_crit_edge.i.i:                ; preds = %1
  %.pre.i.i = load ptr, ptr %17, align 8, !tbaa !24
  br label %Aig_ManFetchMemory.exit

40:                                               ; preds = %1
  %41 = icmp slt i32 %.val.i, 16
  br i1 %41, label %42, label %49

42:                                               ; preds = %40
  %43 = load ptr, ptr %17, align 8, !tbaa !24
  %.not9.i.i.i = icmp eq ptr %43, null
  br i1 %.not9.i.i.i, label %46, label %44

44:                                               ; preds = %42
  %45 = tail call dereferenceable_or_null(128) ptr @realloc(ptr noundef nonnull %43, i64 noundef 128) #20
  br label %Vec_PtrGrow.exit.i.i

46:                                               ; preds = %42
  %47 = tail call noalias dereferenceable_or_null(128) ptr @malloc(i64 noundef 128) #18
  br label %Vec_PtrGrow.exit.i.i

Vec_PtrGrow.exit.i.i:                             ; preds = %46, %44
  %48 = phi ptr [ %45, %44 ], [ %47, %46 ]
  store ptr %48, ptr %17, align 8, !tbaa !24
  store i32 16, ptr %14, align 8, !tbaa !23
  br label %Aig_ManFetchMemory.exit

49:                                               ; preds = %40
  %50 = shl nuw nsw i32 %.val.i, 1
  %51 = load ptr, ptr %17, align 8, !tbaa !24
  %.not9.i10.i.i = icmp eq ptr %51, null
  %52 = zext nneg i32 %50 to i64
  %53 = shl nuw nsw i64 %52, 3
  br i1 %.not9.i10.i.i, label %56, label %54

54:                                               ; preds = %49
  %55 = tail call ptr @realloc(ptr noundef nonnull %51, i64 noundef %53) #20
  br label %58

56:                                               ; preds = %49
  %57 = tail call noalias ptr @malloc(i64 noundef %53) #18
  br label %58

58:                                               ; preds = %56, %54
  %59 = phi ptr [ %55, %54 ], [ %57, %56 ]
  store ptr %59, ptr %17, align 8, !tbaa !24
  store i32 %50, ptr %14, align 8, !tbaa !23
  br label %Aig_ManFetchMemory.exit

Aig_ManFetchMemory.exit:                          ; preds = %.Vec_PtrGrow.exit11_crit_edge.i.i, %Vec_PtrGrow.exit.i.i, %58
  %60 = phi ptr [ %.pre.i.i, %.Vec_PtrGrow.exit11_crit_edge.i.i ], [ %59, %58 ], [ %48, %Vec_PtrGrow.exit.i.i ]
  %61 = load i32, ptr %15, align 4, !tbaa !21
  %62 = add nsw i32 %61, 1
  store i32 %62, ptr %15, align 4, !tbaa !21
  %63 = sext i32 %61 to i64
  %64 = getelementptr inbounds ptr, ptr %60, i64 %63
  store ptr %36, ptr %64, align 8, !tbaa !33
  %65 = getelementptr inbounds nuw i8, ptr %calloc27, i64 48
  store ptr %36, ptr %65, align 8, !tbaa !34
  %66 = getelementptr inbounds nuw i8, ptr %36, i64 24
  %67 = load i64, ptr %66, align 8
  %68 = and i64 %67, -16
  %69 = or disjoint i64 %68, 9
  store i64 %69, ptr %66, align 8
  %70 = getelementptr inbounds nuw i8, ptr %calloc27, i64 132
  store i32 1, ptr %70, align 4, !tbaa !35
  %71 = add nsw i32 %spec.store.select, -1
  br label %.loopexit.i

.loopexit.i:                                      ; preds = %.loopexit.i.backedge, %Aig_ManFetchMemory.exit
  %.012.i = phi i32 [ %71, %Aig_ManFetchMemory.exit ], [ %72, %.loopexit.i.backedge ]
  %72 = add i32 %.012.i, 1
  %73 = and i32 %.012.i, 1
  %.not.not.i = icmp eq i32 %73, 0
  br i1 %.not.not.i, label %.preheader.i, label %.loopexit.i.backedge

.loopexit.i.backedge:                             ; preds = %.lr.ph.i, %.loopexit.i
  br label %.loopexit.i, !llvm.loop !36

.preheader.i:                                     ; preds = %.loopexit.i
  %.not15.i = icmp ult i32 %72, 9
  br i1 %.not15.i, label %Abc_PrimeCudd.exit, label %.lr.ph.i

74:                                               ; preds = %.lr.ph.i
  %75 = add nuw nsw i32 %.01116.i, 2
  %76 = mul nuw nsw i32 %75, %75
  %.not.i = icmp ugt i32 %76, %72
  br i1 %.not.i, label %Abc_PrimeCudd.exit, label %.lr.ph.i, !llvm.loop !38

.lr.ph.i:                                         ; preds = %.preheader.i, %74
  %.01116.i = phi i32 [ %75, %74 ], [ 3, %.preheader.i ]
  %77 = urem i32 %72, %.01116.i
  %78 = icmp eq i32 %77, 0
  br i1 %78, label %.loopexit.i.backedge, label %74, !llvm.loop !36

Abc_PrimeCudd.exit:                               ; preds = %.preheader.i, %74
  %79 = getelementptr inbounds nuw i8, ptr %calloc27, i64 168
  store i32 %72, ptr %79, align 8, !tbaa !39
  %80 = sext i32 %72 to i64
  %81 = shl nsw i64 %80, 3
  %calloc = tail call ptr @calloc(i64 1, i64 %81)
  %82 = getelementptr inbounds nuw i8, ptr %calloc27, i64 160
  store ptr %calloc, ptr %82, align 8, !tbaa !40
  ret ptr %calloc27
}